target datalayout = "e-m:e-p270:32:32-p271:32:32-p272:64:64-i64:64-i128:128-f80:128-n8:16:32:64-S128"
target triple = "x86_64-unknown-linux-gnu"

%"class.std::set.0" = type { %"class.std::_Rb_tree.1" }
%"class.std::_Rb_tree.1" = type { %"struct.std::_Rb_tree<QuantLib::Observer *, QuantLib::Observer *, std::_Identity<QuantLib::Observer *>, std::less<QuantLib::Observer *>>::_Rb_tree_impl" }
%"struct.std::_Rb_tree<QuantLib::Observer *, QuantLib::Observer *, std::_Identity<QuantLib::Observer *>, std::less<QuantLib::Observer *>>::_Rb_tree_impl" = type { [8 x i8], %"struct.std::_Rb_tree_header" }
%"struct.std::_Rb_tree_header" = type { %"struct.std::_Rb_tree_node_base", i64 }
%"struct.std::_Rb_tree_node_base" = type { i32, ptr, ptr, ptr }
%"class.QuantLib::Date" = type { i64 }
%"class.boost::detail::shared_count" = type { ptr }
%"class.std::set" = type { %"class.std::_Rb_tree" }
%"class.std::_Rb_tree" = type { %"struct.std::_Rb_tree<boost::shared_ptr<QuantLib::Observable>, boost::shared_ptr<QuantLib::Observable>, std::_Identity<boost::shared_ptr<QuantLib::Observable>>, std::less<boost::shared_ptr<QuantLib::Observable>>>::_Rb_tree_impl" }
%"struct.std::_Rb_tree<boost::shared_ptr<QuantLib::Observable>, boost::shared_ptr<QuantLib::Observable>, std::_Identity<boost::shared_ptr<QuantLib::Observable>>, std::less<boost::shared_ptr<QuantLib::Observable>>>::_Rb_tree_impl" = type { [8 x i8], %"struct.std::_Rb_tree_header" }
%"class.QuantLib::Observable" = type { ptr, %"class.std::set.0" }
%"class.QuantLib::Handle" = type { %"class.boost::shared_ptr.18" }
%"class.boost::shared_ptr.18" = type { ptr, %"class.boost::detail::shared_count" }
%"class.QuantLib::Period" = type { i32, i32 }
%"class.QuantLib::BootstrapHelper" = type { %"class.QuantLib::Observer", %"class.QuantLib::Observable", %"class.QuantLib::Handle", ptr, %"class.QuantLib::Date", %"class.QuantLib::Date", %"class.QuantLib::Date", %"class.QuantLib::Date", %"class.QuantLib::Date" }
%"class.QuantLib::Observer" = type { ptr, %"class.std::set" }
%"class.QuantLib::Calendar" = type { %"class.boost::shared_ptr.17" }
%"class.boost::shared_ptr.17" = type { ptr, %"class.boost::detail::shared_count" }
%"class.QuantLib::Handle.23" = type { %"class.boost::shared_ptr.24" }
%"class.boost::shared_ptr.24" = type { ptr, %"class.boost::detail::shared_count" }
%"class.QuantLib::RelativeDateBootstrapHelper" = type { %"class.QuantLib::BootstrapHelper", %"class.QuantLib::Date" }
%"class.QuantLib::RelinkableHandle.39" = type { %"class.QuantLib::Handle.23" }
%"class.QuantLib::FxSwapRateHelper" = type { %"class.QuantLib::RelativeDateBootstrapHelper", %"class.QuantLib::Handle", %"class.QuantLib::Period", i32, %"class.QuantLib::Calendar", i32, i8, i8, %"class.QuantLib::RelinkableHandle.39", %"class.QuantLib::Handle.23", %"class.QuantLib::RelinkableHandle.39", %"class.QuantLib::Calendar", %"class.QuantLib::Calendar" }

; Function Attrs: mustprogress nounwind uwtable
define linkonce_odr noundef zeroext i1 @_ZNK5boost10shared_ptrIN8QuantLib8Calendar4ImplEEntEv(ptr noundef nonnull align 8 dereferenceable(16) %this) #1 comdat align 2 {
entry:
  %this.addr = alloca ptr, align 8
  store ptr %this, ptr %this.addr, align 8, !tbaa !3
  %this1 = load ptr, ptr %this.addr, align 8
  %px = getelementptr inbounds nuw %"class.boost::shared_ptr.17", ptr %this1, i32 0, i32 0
  %0 = load ptr, ptr %px, align 8, !tbaa !210
  %cmp = icmp eq ptr %0, null
  ret i1 %cmp
}

; Function Attrs: mustprogress nounwind uwtable
define linkonce_odr void @_ZN8QuantLib6PeriodC2EiNS_8TimeUnitE(ptr noundef nonnull align 4 dereferenceable(8) %this, i32 noundef %n, i32 noundef %units) unnamed_addr #1 comdat align 2 {
entry:
  %this.addr = alloca ptr, align 8
  %n.addr = alloca i32, align 4
  %units.addr = alloca i32, align 4
  store ptr %this, ptr %this.addr, align 8, !tbaa !3
  store i32 %n, ptr %n.addr, align 4, !tbaa !18
  store i32 %units, ptr %units.addr, align 4, !tbaa !53
  %this1 = load ptr, ptr %this.addr, align 8
  %length_ = getelementptr inbounds nuw %"class.QuantLib::Period", ptr %this1, i32 0, i32 0
  %0 = load i32, ptr %n.addr, align 4, !tbaa !18
  store i32 %0, ptr %length_, align 4, !tbaa !213
  %units_ = getelementptr inbounds nuw %"class.QuantLib::Period", ptr %this1, i32 0, i32 1
  %1 = load i32, ptr %units.addr, align 4, !tbaa !53
  store i32 %1, ptr %units_, align 4, !tbaa !214
  ret void
}

; Function Attrs: inlinehint mustprogress nounwind uwtable
define linkonce_odr noundef zeroext i1 @_ZNK8QuantLib8Calendar5emptyEv(ptr noundef nonnull align 8 dereferenceable(16) %this) #5 comdat align 2 {
entry:
  %this.addr = alloca ptr, align 8
  store ptr %this, ptr %this.addr, align 8, !tbaa !3
  %this1 = load ptr, ptr %this.addr, align 8
  %impl_ = getelementptr inbounds nuw %"class.QuantLib::Calendar", ptr %this1, i32 0, i32 0
  %call = call noundef zeroext i1 @_ZNK5boost10shared_ptrIN8QuantLib8Calendar4ImplEEntEv(ptr noundef nonnull align 8 dereferenceable(16) %impl_) #17
  ret i1 %call
}

; Function Attrs: inlinehint mustprogress uwtable
define linkonce_odr i64 @_ZN8QuantLibmlIjEENS_6PeriodET_NS_8TimeUnitE(i32 noundef %n, i32 noundef %units) #4 comdat {
entry:
  %retval = alloca %"class.QuantLib::Period", align 4
  %n.addr = alloca i32, align 4
  %units.addr = alloca i32, align 4
  store i32 %n, ptr %n.addr, align 4, !tbaa !18
  store i32 %units, ptr %units.addr, align 4, !tbaa !53
  %0 = load i32, ptr %n.addr, align 4, !tbaa !18
  %1 = load i32, ptr %units.addr, align 4, !tbaa !53
  call void @_ZN8QuantLib6PeriodC2EiNS_8TimeUnitE(ptr noundef nonnull align 4 dereferenceable(8) %retval, i32 noundef %0, i32 noundef %1)
  %2 = load i64, ptr %retval, align 4
  ret i64 %2
}

; Function Attrs: mustprogress uwtable
define void @_ZN8QuantLib16FxSwapRateHelper15initializeDatesEv(ptr noundef nonnull align 8 dereferenceable(320) %this) unnamed_addr #2 align 2 {
entry:
  %this.addr = alloca ptr, align 8
  %refDate = alloca %"class.QuantLib::Date", align 8
  %ref.tmp = alloca %"class.QuantLib::Date", align 8
  %ref.tmp3 = alloca %"class.QuantLib::Period", align 4
  %ref.tmp8 = alloca %"class.QuantLib::Date", align 8
  %ref.tmp13 = alloca %"class.QuantLib::Date", align 8
  %ref.tmp18 = alloca %"class.QuantLib::Date", align 8
  store ptr %this, ptr %this.addr, align 8, !tbaa !3
  %this1 = load ptr, ptr %this.addr, align 8
  call void @llvm.lifetime.start.p0(i64 8, ptr %refDate) #17
  %cal_ = getelementptr inbounds nuw %"class.QuantLib::FxSwapRateHelper", ptr %this1, i32 0, i32 4
  %evaluationDate_ = getelementptr inbounds nuw %"class.QuantLib::RelativeDateBootstrapHelper", ptr %this1, i32 0, i32 1
  %call = call i64 @_ZNK8QuantLib8Calendar6adjustERKNS_4DateENS_21BusinessDayConventionE(ptr noundef nonnull align 8 dereferenceable(16) %cal_, ptr noundef nonnull align 8 dereferenceable(8) %evaluationDate_, i32 noundef 0)
  %coerce.dive = getelementptr inbounds nuw %"class.QuantLib::Date", ptr %refDate, i32 0, i32 0
  store i64 %call, ptr %coerce.dive, align 8
  call void @llvm.lifetime.start.p0(i64 8, ptr %ref.tmp) #17
  %cal_2 = getelementptr inbounds nuw %"class.QuantLib::FxSwapRateHelper", ptr %this1, i32 0, i32 4
  call void @llvm.lifetime.start.p0(i64 8, ptr %ref.tmp3) #17
  %fixingDays_ = getelementptr inbounds nuw %"class.QuantLib::FxSwapRateHelper", ptr %this1, i32 0, i32 3
  %0 = load i32, ptr %fixingDays_, align 8, !tbaa !137
  %call4 = call i64 @_ZN8QuantLibmlIjEENS_6PeriodET_NS_8TimeUnitE(i32 noundef %0, i32 noundef 0)
  store i64 %call4, ptr %ref.tmp3, align 4
  %call5 = call i64 @_ZNK8QuantLib8Calendar7advanceERKNS_4DateERKNS_6PeriodENS_21BusinessDayConventionEb(ptr noundef nonnull align 8 dereferenceable(16) %cal_2, ptr noundef nonnull align 8 dereferenceable(8) %refDate, ptr noundef nonnull align 4 dereferenceable(8) %ref.tmp3, i32 noundef 0, i1 noundef zeroext false)
  %coerce.dive6 = getelementptr inbounds nuw %"class.QuantLib::Date", ptr %ref.tmp, i32 0, i32 0
  store i64 %call5, ptr %coerce.dive6, align 8
  %earliestDate_ = getelementptr inbounds nuw %"class.QuantLib::BootstrapHelper", ptr %this1, i32 0, i32 4
  call void @llvm.memcpy.p0.p0.i64(ptr align 8 %earliestDate_, ptr align 8 %ref.tmp, i64 8, i1 false), !tbaa.struct !26
  call void @llvm.lifetime.end.p0(i64 8, ptr %ref.tmp3) #17
  call void @llvm.lifetime.end.p0(i64 8, ptr %ref.tmp) #17
  %tradingCalendar_ = getelementptr inbounds nuw %"class.QuantLib::FxSwapRateHelper", ptr %this1, i32 0, i32 11
  %call7 = call noundef zeroext i1 @_ZNK8QuantLib8Calendar5emptyEv(ptr noundef nonnull align 8 dereferenceable(16) %tradingCalendar_)
  br i1 %call7, label %if.else, label %if.then

if.then:                                          ; preds = %entry
  call void @llvm.lifetime.start.p0(i64 8, ptr %ref.tmp8) #17
  %jointCalendar_ = getelementptr inbounds nuw %"class.QuantLib::FxSwapRateHelper", ptr %this1, i32 0, i32 12
  %earliestDate_9 = getelementptr inbounds nuw %"class.QuantLib::BootstrapHelper", ptr %this1, i32 0, i32 4
  %call10 = call i64 @_ZNK8QuantLib8Calendar6adjustERKNS_4DateENS_21BusinessDayConventionE(ptr noundef nonnull align 8 dereferenceable(16) %jointCalendar_, ptr noundef nonnull align 8 dereferenceable(8) %earliestDate_9, i32 noundef 0)
  %coerce.dive11 = getelementptr inbounds nuw %"class.QuantLib::Date", ptr %ref.tmp8, i32 0, i32 0
  store i64 %call10, ptr %coerce.dive11, align 8
  %earliestDate_12 = getelementptr inbounds nuw %"class.QuantLib::BootstrapHelper", ptr %this1, i32 0, i32 4
  call void @llvm.memcpy.p0.p0.i64(ptr align 8 %earliestDate_12, ptr align 8 %ref.tmp8, i64 8, i1 false), !tbaa.struct !26
  call void @llvm.lifetime.end.p0(i64 8, ptr %ref.tmp8) #17
  call void @llvm.lifetime.start.p0(i64 8, ptr %ref.tmp13) #17
  %jointCalendar_14 = getelementptr inbounds nuw %"class.QuantLib::FxSwapRateHelper", ptr %this1, i32 0, i32 12
  %earliestDate_15 = getelementptr inbounds nuw %"class.QuantLib::BootstrapHelper", ptr %this1, i32 0, i32 4
  %tenor_ = getelementptr inbounds nuw %"class.QuantLib::FxSwapRateHelper", ptr %this1, i32 0, i32 2
  %conv_ = getelementptr inbounds nuw %"class.QuantLib::FxSwapRateHelper", ptr %this1, i32 0, i32 5
  %1 = load i32, ptr %conv_, align 8, !tbaa !139
  %eom_ = getelementptr inbounds nuw %"class.QuantLib::FxSwapRateHelper", ptr %this1, i32 0, i32 6
  %2 = load i8, ptr %eom_, align 4, !tbaa !140, !range !29, !noundef !30
  %loadedv = trunc i8 %2 to i1
  %call16 = call i64 @_ZNK8QuantLib8Calendar7advanceERKNS_4DateERKNS_6PeriodENS_21BusinessDayConventionEb(ptr noundef nonnull align 8 dereferenceable(16) %jointCalendar_14, ptr noundef nonnull align 8 dereferenceable(8) %earliestDate_15, ptr noundef nonnull align 4 dereferenceable(8) %tenor_, i32 noundef %1, i1 noundef zeroext %loadedv)
  %coerce.dive17 = getelementptr inbounds nuw %"class.QuantLib::Date", ptr %ref.tmp13, i32 0, i32 0
  store i64 %call16, ptr %coerce.dive17, align 8
  %latestDate_ = getelementptr inbounds nuw %"class.QuantLib::BootstrapHelper", ptr %this1, i32 0, i32 5
  call void @llvm.memcpy.p0.p0.i64(ptr align 8 %latestDate_, ptr align 8 %ref.tmp13, i64 8, i1 false), !tbaa.struct !26
  call void @llvm.lifetime.end.p0(i64 8, ptr %ref.tmp13) #17
  br label %if.end

if.else:                                          ; preds = %entry
  call void @llvm.lifetime.start.p0(i64 8, ptr %ref.tmp18) #17
  %cal_19 = getelementptr inbounds nuw %"class.QuantLib::FxSwapRateHelper", ptr %this1, i32 0, i32 4
  %earliestDate_20 = getelementptr inbounds nuw %"class.QuantLib::BootstrapHelper", ptr %this1, i32 0, i32 4
  %tenor_21 = getelementptr inbounds nuw %"class.QuantLib::FxSwapRateHelper", ptr %this1, i32 0, i32 2
  %conv_22 = getelementptr inbounds nuw %"class.QuantLib::FxSwapRateHelper", ptr %this1, i32 0, i32 5
  %3 = load i32, ptr %conv_22, align 8, !tbaa !139
  %eom_23 = getelementptr inbounds nuw %"class.QuantLib::FxSwapRateHelper", ptr %this1, i32 0, i32 6
  %4 = load i8, ptr %eom_23, align 4, !tbaa !140, !range !29, !noundef !30
  %loadedv24 = trunc i8 %4 to i1
  %call25 = call i64 @_ZNK8QuantLib8Calendar7advanceERKNS_4DateERKNS_6PeriodENS_21BusinessDayConventionEb(ptr noundef nonnull align 8 dereferenceable(16) %cal_19, ptr noundef nonnull align 8 dereferenceable(8) %earliestDate_20, ptr noundef nonnull align 4 dereferenceable(8) %tenor_21, i32 noundef %3, i1 noundef zeroext %loadedv24)
  %coerce.dive26 = getelementptr inbounds nuw %"class.QuantLib::Date", ptr %ref.tmp18, i32 0, i32 0
  store i64 %call25, ptr %coerce.dive26, align 8
  %latestDate_27 = getelementptr inbounds nuw %"class.QuantLib::BootstrapHelper", ptr %this1, i32 0, i32 5
  call void @llvm.memcpy.p0.p0.i64(ptr align 8 %latestDate_27, ptr align 8 %ref.tmp18, i64 8, i1 false), !tbaa.struct !26
  call void @llvm.lifetime.end.p0(i64 8, ptr %ref.tmp18) #17
  br label %if.end

if.end:                                           ; preds = %if.else, %if.then
  call void @llvm.lifetime.end.p0(i64 8, ptr %refDate) #17
  ret void
}