; Function Attrs: mustprogress uwtable
define void @_ZN8QuantLib16FxSwapRateHelper15initializeDatesEv(ptr noundef nonnull align 8 dereferenceable(320) %this) unnamed_addr #7 align 2 {
entry:
  %refDate = alloca %"class.QuantLib::Date", align 8
  %ref.tmp3 = alloca %"class.QuantLib::Period", align 8
  call void @llvm.lifetime.start.p0(i64 8, ptr nonnull %refDate) #26
  %cal_ = getelementptr inbounds nuw i8, ptr %this, i64 216
  %evaluationDate_ = getelementptr inbounds nuw i8, ptr %this, i64 176
  %call = tail call i64 @_ZNK8QuantLib8Calendar6adjustERKNS_4DateENS_21BusinessDayConventionE(ptr noundef nonnull align 8 dereferenceable(16) %cal_, ptr noundef nonnull align 8 dereferenceable(8) %evaluationDate_, i32 noundef 0)
  store i64 %call, ptr %refDate, align 8
  call void @llvm.lifetime.start.p0(i64 8, ptr nonnull %ref.tmp3) #26
  %fixingDays_ = getelementptr inbounds nuw i8, ptr %this, i64 208
  %0 = load i32, ptr %fixingDays_, align 8, !tbaa !229
  %retval.sroa.0.0.insert.ext.i = zext i32 %0 to i64
  store i64 %retval.sroa.0.0.insert.ext.i, ptr %ref.tmp3, align 8
  %call5 = call i64 @_ZNK8QuantLib8Calendar7advanceERKNS_4DateERKNS_6PeriodENS_21BusinessDayConventionEb(ptr noundef nonnull align 8 dereferenceable(16) %cal_, ptr noundef nonnull align 8 dereferenceable(8) %refDate, ptr noundef nonnull align 4 dereferenceable(8) %ref.tmp3, i32 noundef 0, i1 noundef zeroext false)
  %earliestDate_ = getelementptr inbounds nuw i8, ptr %this, i64 136
  store i64 %call5, ptr %earliestDate_, align 8, !tbaa !30
  call void @llvm.lifetime.end.p0(i64 8, ptr nonnull %ref.tmp3) #26
  %tradingCalendar_ = getelementptr inbounds nuw i8, ptr %this, i64 288
  %1 = load ptr, ptr %tradingCalendar_, align 8, !tbaa !165
  %cmp.i.i = icmp eq ptr %1, null
  br i1 %cmp.i.i, label %if.end, label %if.then

if.then:                                          ; preds = %entry
  %jointCalendar_ = getelementptr inbounds nuw i8, ptr %this, i64 304
  %call10 = call i64 @_ZNK8QuantLib8Calendar6adjustERKNS_4DateENS_21BusinessDayConventionE(ptr noundef nonnull align 8 dereferenceable(16) %jointCalendar_, ptr noundef nonnull align 8 dereferenceable(8) %earliestDate_, i32 noundef 0)
  store i64 %call10, ptr %earliestDate_, align 8, !tbaa !30
  br label %if.end

if.end:                                           ; preds = %entry, %if.then
  %cal_.sink = phi ptr [ %jointCalendar_, %if.then ], [ %cal_, %entry ]
  %tenor_21 = getelementptr inbounds nuw i8, ptr %this, i64 200
  %conv_22 = getelementptr inbounds nuw i8, ptr %this, i64 232
  %2 = load i32, ptr %conv_22, align 8, !tbaa !231
  %eom_23 = getelementptr inbounds nuw i8, ptr %this, i64 236
  %3 = load i8, ptr %eom_23, align 4, !tbaa !232, !range !26, !noundef !27
  %loadedv24 = trunc nuw i8 %3 to i1
  %call25 = call i64 @_ZNK8QuantLib8Calendar7advanceERKNS_4DateERKNS_6PeriodENS_21BusinessDayConventionEb(ptr noundef nonnull align 8 dereferenceable(16) %cal_.sink, ptr noundef nonnull align 8 dereferenceable(8) %earliestDate_, ptr noundef nonnull align 4 dereferenceable(8) %tenor_21, i32 noundef %2, i1 noundef zeroext %loadedv24)
  %4 = getelementptr inbounds nuw i8, ptr %this, i64 144
  store i64 %call25, ptr %4, align 8
  call void @llvm.lifetime.end.p0(i64 8, ptr nonnull %refDate) #26
  ret void
}